; ModuleID = '12/1103.c'
source_filename = "12/1103.c"
target datalayout = "e-m:e-p270:32:32-p271:32:32-p272:64:64-i64:64-f80:128-n8:16:32:64-S128"
target triple = "x86_64-pc-linux-gnu"

@.str = private unnamed_addr constant [3 x i8] c"%d\00", align 1
@.str.1 = private unnamed_addr constant [4 x i8] c"%d\0A\00", align 1

; Function Attrs: noinline nounwind uwtable
define dso_local i32 @main() #0 {
  %1 = alloca i32, align 4
  %2 = alloca i32, align 4
  %3 = alloca i32, align 4
  %4 = alloca i32, align 4
  %5 = alloca [16 x i32], align 16
  store i32 0, i32* %1, align 4
  store i32 0, i32* %2, align 4
  store i32 0, i32* %3, align 4
  store i32 0, i32* %4, align 4
  br label %6

6:                                                ; preds = %59, %0
  %7 = load i32, i32* %2, align 4
  %8 = sext i32 %7 to i64
  %9 = getelementptr inbounds [16 x i32], [16 x i32]* %5, i64 0, i64 %8
  %10 = call i32 (i8*, ...) @__isoc99_scanf(i8* getelementptr inbounds ([3 x i8], [3 x i8]* @.str, i64 0, i64 0), i32* %9)
  %11 = load i32, i32* %2, align 4
  %12 = sext i32 %11 to i64
  %13 = getelementptr inbounds [16 x i32], [16 x i32]* %5, i64 0, i64 %12
  %14 = load i32, i32* %13, align 4
  %15 = icmp eq i32 %14, 0
  br i1 %15, label %16, label %19

16:                                               ; preds = %6
  %17 = load i32, i32* %4, align 4
  %18 = call i32 (i8*, ...) @printf(i8* getelementptr inbounds ([4 x i8], [4 x i8]* @.str.1, i64 0, i64 0), i32 %17)
  store i32 -1, i32* %2, align 4
  store i32 0, i32* %4, align 4
  br label %19

19:                                               ; preds = %16, %6
  %20 = getelementptr inbounds [16 x i32], [16 x i32]* %5, i64 0, i64 0
  %21 = load i32, i32* %20, align 16
  %22 = icmp eq i32 %21, -1
  br i1 %22, label %23, label %24

23:                                               ; preds = %19
  br label %62

24:                                               ; preds = %19
  store i32 0, i32* %3, align 4
  br label %25

25:                                               ; preds = %55, %24
  %26 = load i32, i32* %3, align 4
  %27 = load i32, i32* %2, align 4
  %28 = icmp slt i32 %26, %27
  br i1 %28, label %29, label %58

29:                                               ; preds = %25
  %30 = load i32, i32* %2, align 4
  %31 = sext i32 %30 to i64
  %32 = getelementptr inbounds [16 x i32], [16 x i32]* %5, i64 0, i64 %31
  %33 = load i32, i32* %32, align 4
  %34 = load i32, i32* %3, align 4
  %35 = sext i32 %34 to i64
  %36 = getelementptr inbounds [16 x i32], [16 x i32]* %5, i64 0, i64 %35
  %37 = load i32, i32* %36, align 4
  %38 = mul nsw i32 %37, 2
  %39 = icmp eq i32 %33, %38
  br i1 %39, label %51, label %40

40:                                               ; preds = %29
  %41 = load i32, i32* %3, align 4
  %42 = sext i32 %41 to i64
  %43 = getelementptr inbounds [16 x i32], [16 x i32]* %5, i64 0, i64 %42
  %44 = load i32, i32* %43, align 4
  %45 = load i32, i32* %2, align 4
  %46 = sext i32 %45 to i64
  %47 = getelementptr inbounds [16 x i32], [16 x i32]* %5, i64 0, i64 %46
  %48 = load i32, i32* %47, align 4
  %49 = mul nsw i32 %48, 2
  %50 = icmp eq i32 %44, %49
  br i1 %50, label %51, label %54

51:                                               ; preds = %40, %29
  %52 = load i32, i32* %4, align 4
  %53 = add nsw i32 %52, 1
  store i32 %53, i32* %4, align 4
  br label %54

54:                                               ; preds = %51, %40
  br label %55

55:                                               ; preds = %54
  %56 = load i32, i32* %3, align 4
  %57 = add nsw i32 %56, 1
  store i32 %57, i32* %3, align 4
  br label %25

58:                                               ; preds = %25
  br label %59

59:                                               ; preds = %58
  %60 = load i32, i32* %2, align 4
  %61 = add nsw i32 %60, 1
  store i32 %61, i32* %2, align 4
  br label %6

62:                                               ; preds = %23
  %63 = load i32, i32* %1, align 4
  ret i32 %63
}

declare dso_local i32 @__isoc99_scanf(i8*, ...) #1

declare dso_local i32 @printf(i8*, ...) #1


!llvm.module.flags = !{!0}
!llvm.ident = !{!1}

!0 = !{i32 1, !"wchar_size", i32 4}
!1 = !{!"clang version 10.0.0-4ubuntu1 "}
